target datalayout = "e-m:e-p270:32:32-p271:32:32-p272:64:64-i64:64-i128:128-f80:128-n8:16:32:64-S128"
target triple = "x86_64-pc-linux-gnu"

%struct._lv_file_explorer_t = type { %struct._lv_obj_t, ptr, ptr, ptr, ptr, ptr, ptr, ptr, ptr, ptr, ptr, ptr, ptr, ptr, ptr, ptr, [128 x i8], i32 }
%struct._lv_obj_t = type { ptr, ptr, ptr, ptr, ptr, %struct.lv_area_t, i32, i16, i16 }
%struct.lv_area_t = type { i32, i32, i32, i32 }

; Function Attrs: nounwind uwtable
define internal void @quick_access_area_event_handler(ptr noundef %0) #0 {
  %2 = alloca ptr, align 8
  %3 = alloca i32, align 4
  %4 = alloca ptr, align 8
  %5 = alloca ptr, align 8
  %6 = alloca ptr, align 8
  store ptr %0, ptr %2, align 8, !tbaa !47
  call void @llvm.lifetime.start.p0(i64 4, ptr %3) #5
  %7 = load ptr, ptr %2, align 8, !tbaa !47
  %8 = call i32 @lv_event_get_code(ptr noundef %7)
  store i32 %8, ptr %3, align 4, !tbaa !35
  call void @llvm.lifetime.start.p0(i64 8, ptr %4) #5
  %9 = load ptr, ptr %2, align 8, !tbaa !47
  %10 = call ptr @lv_event_get_current_target(ptr noundef %9)
  store ptr %10, ptr %4, align 8, !tbaa !8
  call void @llvm.lifetime.start.p0(i64 8, ptr %5) #5
  %11 = load ptr, ptr %2, align 8, !tbaa !47
  %12 = call ptr @lv_event_get_user_data(ptr noundef %11)
  store ptr %12, ptr %5, align 8, !tbaa !8
  call void @llvm.lifetime.start.p0(i64 8, ptr %6) #5
  %13 = load ptr, ptr %5, align 8, !tbaa !8
  store ptr %13, ptr %6, align 8, !tbaa !10
  %14 = load i32, ptr %3, align 4, !tbaa !35
  %15 = icmp eq i32 %14, 51
  br i1 %15, label %16, label %28

16:                                               ; preds = %1
  %17 = load ptr, ptr %4, align 8, !tbaa !8
  %18 = call zeroext i1 @lv_obj_has_flag(ptr noundef %17, i32 noundef 1)
  br i1 %18, label %19, label %23

19:                                               ; preds = %16
  %20 = load ptr, ptr %6, align 8, !tbaa !10
  %21 = getelementptr inbounds nuw %struct._lv_file_explorer_t, ptr %20, i32 0, i32 3
  %22 = load ptr, ptr %21, align 8, !tbaa !29
  call void @lv_obj_set_size(ptr noundef %22, i32 noundef 536871012, i32 noundef 536871012)
  br label %27

23:                                               ; preds = %16
  %24 = load ptr, ptr %6, align 8, !tbaa !10
  %25 = getelementptr inbounds nuw %struct._lv_file_explorer_t, ptr %24, i32 0, i32 3
  %26 = load ptr, ptr %25, align 8, !tbaa !29
  call void @lv_obj_set_size(ptr noundef %26, i32 noundef 536870990, i32 noundef 536871012)
  br label %27

27:                                               ; preds = %23, %19
  br label %28

28:                                               ; preds = %27, %1
  call void @llvm.lifetime.end.p0(i64 8, ptr %6) #5
  call void @llvm.lifetime.end.p0(i64 8, ptr %5) #5
  call void @llvm.lifetime.end.p0(i64 8, ptr %4) #5
  call void @llvm.lifetime.end.p0(i64 4, ptr %3) #5
  ret void
}