; Function Attrs: nounwind uwtable
define internal void @quick_access_area_event_handler(ptr noundef %0) #0 {
  %2 = tail call i32 @lv_event_get_code(ptr noundef %0) #6
  %3 = tail call ptr @lv_event_get_current_target(ptr noundef %0) #6
  %4 = tail call ptr @lv_event_get_user_data(ptr noundef %0) #6
  %5 = icmp eq i32 %2, 51
  br i1 %5, label %.sink.split, label %9

.sink.split:                                      ; preds = %1
  %6 = tail call zeroext i1 @lv_obj_has_flag(ptr noundef %3, i32 noundef 1) #6
  %7 = getelementptr inbounds nuw i8, ptr %4, i64 80
  %8 = load ptr, ptr %7, align 8, !tbaa !19
  %. = select i1 %6, i32 536871012, i32 536870990
  tail call void @lv_obj_set_size(ptr noundef %8, i32 noundef %., i32 noundef 536871012) #6
  br label %9

9:                                                ; preds = %.sink.split, %1
  ret void
}